target datalayout = "e-m:e-p270:32:32-p271:32:32-p272:64:64-i64:64-i128:128-f80:128-n8:16:32:64-S128"
target triple = "x86_64-unknown-linux-gnu"

%"class.std::__cxx11::basic_string" = type { %"struct.std::__cxx11::basic_string<char>::_Alloc_hider", i64, %union.anon }
%"struct.std::__cxx11::basic_string<char>::_Alloc_hider" = type { ptr }
%union.anon = type { i64, [8 x i8] }
%"class.facebook::velox::ReadFile" = type { ptr, %"struct.std::atomic" }
%"struct.std::atomic" = type { %"struct.std::__atomic_base" }
%"struct.std::__atomic_base" = type { i64 }
%"class.facebook::velox::LocalReadFile" = type { %"class.facebook::velox::ReadFile", %"class.std::__cxx11::basic_string", i32, i64 }

; Function Attrs: mustprogress nounwind uwtable
define linkonce_odr noundef i64 @_ZNSt13__atomic_baseImEpLEm(ptr noundef nonnull align 8 dereferenceable(8) %this, i64 noundef %__i) #3 comdat align 2 {
entry:
  %this.addr = alloca ptr, align 8
  %__i.addr = alloca i64, align 8
  %.atomictmp = alloca i64, align 8
  %atomic-temp = alloca i64, align 8
  store ptr %this, ptr %this.addr, align 8
  store i64 %__i, ptr %__i.addr, align 8
  %this1 = load ptr, ptr %this.addr, align 8
  %_M_i = getelementptr inbounds %"struct.std::__atomic_base", ptr %this1, i32 0, i32 0
  %0 = load i64, ptr %__i.addr, align 8
  store i64 %0, ptr %.atomictmp, align 8
  %1 = load i64, ptr %.atomictmp, align 8
  %2 = atomicrmw add ptr %_M_i, i64 %1 seq_cst, align 8
  %3 = add i64 %2, %1
  store i64 %3, ptr %atomic-temp, align 8
  %4 = load i64, ptr %atomic-temp, align 8
  ret i64 %4
}

; Function Attrs: mustprogress uwtable
define void @_ZNK8facebook5velox13LocalReadFile13preadInternalEmmPc(ptr noundef nonnull align 8 dereferenceable(64) %this, i64 noundef %offset, i64 noundef %length, ptr noundef %pos) #0 align 2 {
entry:
  %this.addr = alloca ptr, align 8
  %offset.addr = alloca i64, align 8
  %length.addr = alloca i64, align 8
  %pos.addr = alloca ptr, align 8
  %bytesRead = alloca i64, align 8
  store ptr %this, ptr %this.addr, align 8
  store i64 %offset, ptr %offset.addr, align 8
  store i64 %length, ptr %length.addr, align 8
  store ptr %pos, ptr %pos.addr, align 8
  %this1 = load ptr, ptr %this.addr, align 8
  %0 = load i64, ptr %length.addr, align 8
  %bytesRead_ = getelementptr inbounds %"class.facebook::velox::ReadFile", ptr %this1, i32 0, i32 1
  %call = call noundef i64 @_ZNSt13__atomic_baseImEpLEm(ptr noundef nonnull align 8 dereferenceable(8) %bytesRead_, i64 noundef %0) #9
  %fd_ = getelementptr inbounds %"class.facebook::velox::LocalReadFile", ptr %this1, i32 0, i32 2
  %1 = load i32, ptr %fd_, align 8
  %2 = load ptr, ptr %pos.addr, align 8
  %3 = load i64, ptr %length.addr, align 8
  %4 = load i64, ptr %offset.addr, align 8
  %call2 = call i64 @pread(i32 noundef %1, ptr noundef %2, i64 noundef %3, i64 noundef %4)
  store i64 %call2, ptr %bytesRead, align 8
  %5 = load i64, ptr %bytesRead, align 8
  %6 = load i64, ptr %length.addr, align 8
  %cmp = icmp eq i64 %5, %6
  %lnot = xor i1 %cmp, true
  br i1 %lnot, label %if.then, label %if.end

if.then:                                          ; preds = %entry
  call void @llvm.trap()
  br label %if.end

if.end:                                           ; preds = %if.then, %entry
  ret void
}