; Function Attrs: mustprogress uwtable
define void @_ZNK8facebook5velox13LocalReadFile13preadInternalEmmPc(ptr nocapture noundef nonnull align 8 dereferenceable(64) %this, i64 noundef %offset, i64 noundef %length, ptr nocapture noundef %pos) local_unnamed_addr #0 align 2 {
entry:
  %bytesRead_ = getelementptr inbounds i8, ptr %this, i64 8
  %0 = atomicrmw add ptr %bytesRead_, i64 %length seq_cst, align 8
  %fd_ = getelementptr inbounds i8, ptr %this, i64 48
  %1 = load i32, ptr %fd_, align 8
  %call2 = tail call i64 @pread(i32 noundef %1, ptr noundef %pos, i64 noundef %length, i64 noundef %offset)
  %cmp.not = icmp eq i64 %call2, %length
  br i1 %cmp.not, label %if.end, label %if.then

if.then:                                          ; preds = %entry
  tail call void @llvm.trap()
  unreachable

if.end:                                           ; preds = %entry
  ret void
}